(lp0
(I24
I551
tp1
a(I27
I538
tp2
a(I35
I527
tp3
a(I39
I512
tp4
a(I43
I498
tp5
a(I42
I476
tp6
a(I55
I485
tp7
a(I62
I504
tp8
a(I65
I514
tp9
a(I75
I507
tp10
a(I78
I497
tp11
a(I83
I482
tp12
a(I95
I493
tp13
a(I101
I517
tp14
a(I106
I535
tp15
a(I107
I542
tp16
a(I117
I572
tp17
a(I160
I525
tp18
a(I143
I521
tp19
a(I139
I510
tp20
a(I137
I496
tp21
a(I146
I488
tp22
a(I155
I486
tp23
a(I180
I526
tp24
a(I175
I512
tp25
a(I174
I498
tp26
a(I176
I486
tp27
a(I179
I477
tp28
a(I239
I525
tp29
a(I228
I522
tp30
a(I226
I515
tp31
a(I216
I502
tp32
a(I214
I491
tp33
a(I221
I469
tp34
a(I231
I470
tp35
a(I237
I472
tp36
a(I256
I518
tp37
a(I250
I499
tp38
a(I246
I480
tp39
a(I243
I463
tp40
a(I235
I444
tp41
a(I226
I443
tp42
a(I216
I448
tp43
a(I208
I448
tp44
a(I201
I450
tp45
a(I311
I531
tp46
a(I301
I528
tp47
a(I295
I522
tp48
a(I288
I507
tp49
a(I282
I485
tp50
a(I290
I473
tp51
a(I306
I471
tp52
a(I316
I476
tp53
a(I332
I526
tp54
a(I330
I515
tp55
a(I330
I495
tp56
a(I327
I480
tp57
a(I326
I467
tp58
a(I323
I449
tp59
a(I313
I432
tp60
a(I303
I431
tp61
a(I281
I437
tp62
a(I276
I438
tp63
a(I292
I439
tp64
a(I373
I584
tp65
a(I371
I574
tp66
a(I371
I558
tp67
a(I372
I544
tp68
a(I372
I529
tp69
a(I371
I506
tp70
a(I369
I488
tp71
a(I370
I479
tp72
a(I375
I478
tp73
a(I380
I477
tp74
a(I385
I477
tp75
a(I392
I477
tp76
a(I446
I516
tp77
a(I449
I516
tp78
a(I460
I515
tp79
a(I473
I515
tp80
a(I482
I518
tp81
a(I486
I530
tp82
a(I488
I544
tp83
a(I471
I549
tp84
a(I454
I541
tp85
a(I448
I538
tp86
a(I439
I533
tp87
a(I435
I514
tp88
a(I439
I497
tp89
a(I447
I485
tp90
a(I464
I479
tp91
a(I475
I475
tp92
a(I489
I476
tp93
a(I508
I482
tp94
a(I527
I490
tp95
a(I534
I496
tp96
a(I112
I568
tp97
a(I115
I561
tp98
a(I106
I551
tp99
a(I218
I489
tp100
a(I221
I485
tp101
a(I247
I459
tp102
a(I376
I524
tp103
a.